; Function Attrs: mustprogress uwtable
define void @_ZN3g2o16OptimizableGraph13postIterationEi(ptr noundef nonnull align 8 dereferenceable(288) %0, i32 noundef %1) unnamed_addr #4 align 2 personality ptr @__gxx_personality_v0 {
  %3 = alloca %"class.g2o::HyperGraphAction::ParametersIteration", align 8
  %4 = getelementptr inbounds nuw i8, ptr %0, i64 168
  %5 = load ptr, ptr %4, align 8, !tbaa !130
  %6 = getelementptr inbounds nuw i8, ptr %5, i64 88
  %7 = load i64, ptr %6, align 8, !tbaa !96
  %.not.i = icmp eq i64 %7, 0
  br i1 %.not.i, label %_ZN3g2o16OptimizableGraph14performActionsEiRSt3setIPNS_16HyperGraphActionESt4lessIS3_ESaIS3_EE.exit, label %8

8:                                                ; preds = %2
  call void @llvm.lifetime.start.p0(i64 16, ptr nonnull %3) #45
  call void @_ZN3g2o16HyperGraphAction19ParametersIterationC1Ei(ptr noundef nonnull align 8 dereferenceable(12) %3, i32 noundef %1)
  %9 = getelementptr inbounds nuw i8, ptr %5, i64 72
  %10 = load ptr, ptr %9, align 8, !tbaa !94
  %11 = getelementptr inbounds nuw i8, ptr %5, i64 56
  %.not910.i = icmp eq ptr %10, %11
  br i1 %.not910.i, label %._crit_edge.i, label %.lr.ph.i

._crit_edge.i:                                    ; preds = %18, %8
  call void @_ZN3g2o16HyperGraphAction10ParametersD2Ev(ptr noundef nonnull align 8 dereferenceable(12) %3) #45
  call void @llvm.lifetime.end.p0(i64 16, ptr nonnull %3) #45
  br label %_ZN3g2o16OptimizableGraph14performActionsEiRSt3setIPNS_16HyperGraphActionESt4lessIS3_ESaIS3_EE.exit

.lr.ph.i:                                         ; preds = %8, %18
  %.sroa.06.011.i = phi ptr [ %19, %18 ], [ %10, %8 ]
  %12 = getelementptr inbounds nuw i8, ptr %.sroa.06.011.i, i64 32
  %13 = load ptr, ptr %12, align 8, !tbaa !210
  %14 = load ptr, ptr %13, align 8, !tbaa !9
  %15 = getelementptr inbounds nuw i8, ptr %14, i64 16
  %16 = load ptr, ptr %15, align 8
  %17 = invoke noundef ptr %16(ptr noundef nonnull align 8 dereferenceable(8) %13, ptr noundef nonnull align 8 dereferenceable(288) %0, ptr noundef nonnull %3)
          to label %18 unwind label %20

18:                                               ; preds = %.lr.ph.i
  %19 = call noundef ptr @_ZSt18_Rb_tree_incrementPKSt18_Rb_tree_node_base(ptr noundef nonnull %.sroa.06.011.i) #47
  %.not9.i = icmp eq ptr %19, %11
  br i1 %.not9.i, label %._crit_edge.i, label %.lr.ph.i, !llvm.loop !212

20:                                               ; preds = %.lr.ph.i
  %21 = landingpad { ptr, i32 }
          cleanup
  call void @_ZN3g2o16HyperGraphAction10ParametersD2Ev(ptr noundef nonnull align 8 dereferenceable(12) %3) #45
  call void @llvm.lifetime.end.p0(i64 16, ptr nonnull %3) #45
  resume { ptr, i32 } %21

_ZN3g2o16OptimizableGraph14performActionsEiRSt3setIPNS_16HyperGraphActionESt4lessIS3_ESaIS3_EE.exit: ; preds = %2, %._crit_edge.i
  ret void
}